target datalayout = "e-m:e-p270:32:32-p271:32:32-p272:64:64-i64:64-i128:128-f80:128-n8:16:32:64-S128"
target triple = "x86_64-pc-linux-gnu"

%"class.gmx::LogTargetFormatter" = type { %"class.gmx::ILogTarget", %"class.gmx::TextWriter" }
%"class.gmx::ILogTarget" = type { ptr }
%"class.gmx::TextWriter" = type { %"class.std::unique_ptr" }
%"class.std::unique_ptr" = type { %"struct.std::__uniq_ptr_data" }
%"struct.std::__uniq_ptr_data" = type { %"class.std::__uniq_ptr_impl" }
%"class.std::__uniq_ptr_impl" = type { %"class.std::tuple" }
%"class.std::tuple" = type { %"struct.std::_Tuple_impl" }
%"struct.std::_Tuple_impl" = type { %"struct.std::_Head_base.1" }
%"struct.std::_Head_base.1" = type { ptr }
%"struct.gmx::LogEntry" = type <{ %"class.std::__cxx11::basic_string", i8, [7 x i8] }>
%"class.std::__cxx11::basic_string" = type { %"struct.std::__cxx11::basic_string<char>::_Alloc_hider", i64, %union.anon }
%"struct.std::__cxx11::basic_string<char>::_Alloc_hider" = type { ptr }
%union.anon = type { i64, [8 x i8] }

; Function Attrs: mustprogress uwtable
define void @_ZN3gmx18LogTargetFormatter10writeEntryERKNS_8LogEntryE(ptr noundef nonnull align 8 dereferenceable(16) %0, ptr noundef nonnull align 8 dereferenceable(33) %1) unnamed_addr #1 align 2 {
  %3 = alloca ptr, align 8
  %4 = alloca ptr, align 8
  store ptr %0, ptr %3, align 8
  store ptr %1, ptr %4, align 8
  %5 = load ptr, ptr %3, align 8
  %6 = load ptr, ptr %4, align 8
  %7 = getelementptr inbounds %"struct.gmx::LogEntry", ptr %6, i32 0, i32 1
  %8 = load i8, ptr %7, align 8
  %9 = trunc i8 %8 to i1
  br i1 %9, label %10, label %12

10:                                               ; preds = %2
  %11 = getelementptr inbounds %"class.gmx::LogTargetFormatter", ptr %5, i32 0, i32 1
  call void @_ZN3gmx10TextWriter15ensureEmptyLineEv(ptr noundef nonnull align 8 dereferenceable(8) %11)
  br label %12

12:                                               ; preds = %10, %2
  %13 = getelementptr inbounds %"class.gmx::LogTargetFormatter", ptr %5, i32 0, i32 1
  %14 = load ptr, ptr %4, align 8
  %15 = getelementptr inbounds %"struct.gmx::LogEntry", ptr %14, i32 0, i32 0
  call void @_ZN3gmx10TextWriter9writeLineERKNSt7__cxx1112basic_stringIcSt11char_traitsIcESaIcEEE(ptr noundef nonnull align 8 dereferenceable(8) %13, ptr noundef nonnull align 8 dereferenceable(32) %15)
  %16 = load ptr, ptr %4, align 8
  %17 = getelementptr inbounds %"struct.gmx::LogEntry", ptr %16, i32 0, i32 1
  %18 = load i8, ptr %17, align 8
  %19 = trunc i8 %18 to i1
  br i1 %19, label %20, label %22

20:                                               ; preds = %12
  %21 = getelementptr inbounds %"class.gmx::LogTargetFormatter", ptr %5, i32 0, i32 1
  call void @_ZN3gmx10TextWriter15ensureEmptyLineEv(ptr noundef nonnull align 8 dereferenceable(8) %21)
  br label %22

22:                                               ; preds = %20, %12
  ret void
}