; Function Attrs: mustprogress uwtable
define void @_ZN3gmx18LogTargetFormatter10writeEntryERKNS_8LogEntryE(ptr noundef nonnull align 8 dereferenceable(16) %0, ptr noundef nonnull align 8 dereferenceable(33) %1) unnamed_addr #1 align 2 {
  %3 = getelementptr inbounds i8, ptr %1, i64 32
  %4 = load i8, ptr %3, align 8
  %5 = trunc i8 %4 to i1
  br i1 %5, label %6, label %8

6:                                                ; preds = %2
  %7 = getelementptr inbounds i8, ptr %0, i64 8
  tail call void @_ZN3gmx10TextWriter15ensureEmptyLineEv(ptr noundef nonnull align 8 dereferenceable(8) %7)
  br label %8

8:                                                ; preds = %6, %2
  %9 = getelementptr inbounds i8, ptr %0, i64 8
  tail call void @_ZN3gmx10TextWriter9writeLineERKNSt7__cxx1112basic_stringIcSt11char_traitsIcESaIcEEE(ptr noundef nonnull align 8 dereferenceable(8) %9, ptr noundef nonnull align 8 dereferenceable(32) %1)
  %10 = load i8, ptr %3, align 8
  %11 = trunc i8 %10 to i1
  br i1 %11, label %12, label %13

12:                                               ; preds = %8
  tail call void @_ZN3gmx10TextWriter15ensureEmptyLineEv(ptr noundef nonnull align 8 dereferenceable(8) %9)
  br label %13

13:                                               ; preds = %12, %8
  ret void
}